; Function Attrs: mustprogress uwtable
define internal fastcc void @_ZN4dateL15discover_tz_dirB5cxx11Ev() unnamed_addr #7 personality ptr @__gxx_personality_v0 {
entry:
  %sb = alloca %struct.stat, align 8
  %ref.tmp = alloca %"class.std::allocator", align 1
  %ref.tmp9 = alloca %"class.std::allocator", align 1
  %call = call i32 @stat(ptr noundef nonnull @.str.36, ptr noundef nonnull %sb) #24
  %cmp = icmp eq i32 %call, 0
  br i1 %cmp, label %land.lhs.true, label %if.else

land.lhs.true:                                    ; preds = %entry
  %st_mode = getelementptr inbounds i8, ptr %sb, i64 24
  %0 = load i32, ptr %st_mode, align 8
  %and = and i32 %0, 61440
  %cmp1 = icmp eq i32 %and, 16384
  br i1 %cmp1, label %if.then, label %if.else

if.then:                                          ; preds = %land.lhs.true
  call void @_ZNSaIcEC1Ev(ptr noundef nonnull align 1 dereferenceable(1) %ref.tmp) #24
  %call.i2 = invoke noundef ptr @_ZNSt7__cxx1112basic_stringIcSt11char_traitsIcESaIcEE13_M_local_dataEv(ptr noundef nonnull align 8 dereferenceable(32) @_ZZN4dateL10get_tz_dirB5cxx11EvE6tz_dirB5cxx11)
          to label %call.i.noexc unwind label %lpad

call.i.noexc:                                     ; preds = %if.then
  invoke void @_ZNSt7__cxx1112basic_stringIcSt11char_traitsIcESaIcEE12_Alloc_hiderC1EPcRKS3_(ptr noundef nonnull align 8 dereferenceable(8) @_ZZN4dateL10get_tz_dirB5cxx11EvE6tz_dirB5cxx11, ptr noundef %call.i2, ptr noundef nonnull align 1 dereferenceable(1) %ref.tmp)
          to label %.noexc unwind label %lpad

.noexc:                                           ; preds = %call.i.noexc
  invoke void @_ZNSt7__cxx1112basic_stringIcSt11char_traitsIcESaIcEE12_M_constructIPKcEEvT_S8_St20forward_iterator_tag(ptr noundef nonnull align 8 dereferenceable(32) @_ZZN4dateL10get_tz_dirB5cxx11EvE6tz_dirB5cxx11, ptr noundef nonnull @.str.36, ptr noundef nonnull getelementptr inbounds ([27 x i8], ptr @.str.36, i64 0, i64 26))
          to label %return unwind label %lpad.i

lpad.i:                                           ; preds = %.noexc
  %1 = landingpad { ptr, i32 }
          cleanup
  call void @_ZNSaIcED2Ev(ptr noundef nonnull align 1 dereferenceable(1) @_ZZN4dateL10get_tz_dirB5cxx11EvE6tz_dirB5cxx11) #24
  br label %lpad.body

lpad:                                             ; preds = %call.i.noexc, %if.then
  %2 = landingpad { ptr, i32 }
          cleanup
  br label %lpad.body

lpad.body:                                        ; preds = %lpad.i, %lpad
  %eh.lpad-body = phi { ptr, i32 } [ %2, %lpad ], [ %1, %lpad.i ]
  call void @_ZNSaIcED1Ev(ptr noundef nonnull align 1 dereferenceable(1) %ref.tmp) #24
  br label %eh.resume

if.else:                                          ; preds = %land.lhs.true, %entry
  %call2 = call i32 @stat(ptr noundef nonnull @.str.35, ptr noundef nonnull %sb) #24
  %cmp3 = icmp eq i32 %call2, 0
  br i1 %cmp3, label %land.lhs.true4, label %if.else12

land.lhs.true4:                                   ; preds = %if.else
  %st_mode5 = getelementptr inbounds i8, ptr %sb, i64 24
  %3 = load i32, ptr %st_mode5, align 8
  %and6 = and i32 %3, 61440
  %cmp7 = icmp eq i32 %and6, 16384
  br i1 %cmp7, label %if.then8, label %if.else12

if.then8:                                         ; preds = %land.lhs.true4
  call void @_ZNSaIcEC1Ev(ptr noundef nonnull align 1 dereferenceable(1) %ref.tmp9) #24
  %call.i7 = invoke noundef ptr @_ZNSt7__cxx1112basic_stringIcSt11char_traitsIcESaIcEE13_M_local_dataEv(ptr noundef nonnull align 8 dereferenceable(32) @_ZZN4dateL10get_tz_dirB5cxx11EvE6tz_dirB5cxx11)
          to label %call.i.noexc6 unwind label %lpad10

call.i.noexc6:                                    ; preds = %if.then8
  invoke void @_ZNSt7__cxx1112basic_stringIcSt11char_traitsIcESaIcEE12_Alloc_hiderC1EPcRKS3_(ptr noundef nonnull align 8 dereferenceable(8) @_ZZN4dateL10get_tz_dirB5cxx11EvE6tz_dirB5cxx11, ptr noundef %call.i7, ptr noundef nonnull align 1 dereferenceable(1) %ref.tmp9)
          to label %.noexc8 unwind label %lpad10

.noexc8:                                          ; preds = %call.i.noexc6
  invoke void @_ZNSt7__cxx1112basic_stringIcSt11char_traitsIcESaIcEE12_M_constructIPKcEEvT_S8_St20forward_iterator_tag(ptr noundef nonnull align 8 dereferenceable(32) @_ZZN4dateL10get_tz_dirB5cxx11EvE6tz_dirB5cxx11, ptr noundef nonnull @.str.35, ptr noundef nonnull getelementptr inbounds ([20 x i8], ptr @.str.35, i64 0, i64 19))
          to label %return unwind label %lpad.i5

lpad.i5:                                          ; preds = %.noexc8
  %4 = landingpad { ptr, i32 }
          cleanup
  call void @_ZNSaIcED2Ev(ptr noundef nonnull align 1 dereferenceable(1) @_ZZN4dateL10get_tz_dirB5cxx11EvE6tz_dirB5cxx11) #24
  br label %lpad10.body

lpad10:                                           ; preds = %call.i.noexc6, %if.then8
  %5 = landingpad { ptr, i32 }
          cleanup
  br label %lpad10.body

lpad10.body:                                      ; preds = %lpad.i5, %lpad10
  %eh.lpad-body9 = phi { ptr, i32 } [ %5, %lpad10 ], [ %4, %lpad.i5 ]
  call void @_ZNSaIcED1Ev(ptr noundef nonnull align 1 dereferenceable(1) %ref.tmp9) #24
  br label %eh.resume

if.else12:                                        ; preds = %land.lhs.true4, %if.else
  %exception = tail call ptr @__cxa_allocate_exception(i64 16) #24
  invoke void @_ZNSt13runtime_errorC1EPKc(ptr noundef nonnull align 8 dereferenceable(16) %exception, ptr noundef nonnull @.str.37)
          to label %invoke.cont14 unwind label %lpad13

invoke.cont14:                                    ; preds = %if.else12
  tail call void @__cxa_throw(ptr nonnull %exception, ptr nonnull @_ZTISt13runtime_error, ptr nonnull @_ZNSt13runtime_errorD1Ev) #27
  unreachable

lpad13:                                           ; preds = %if.else12
  %6 = landingpad { ptr, i32 }
          cleanup
  tail call void @__cxa_free_exception(ptr %exception) #24
  br label %eh.resume

return:                                           ; preds = %.noexc8, %.noexc
  %ref.tmp9.sink = phi ptr [ %ref.tmp, %.noexc ], [ %ref.tmp9, %.noexc8 ]
  call void @_ZNSaIcED1Ev(ptr noundef nonnull align 1 dereferenceable(1) %ref.tmp9.sink) #24
  ret void

eh.resume:                                        ; preds = %lpad13, %lpad10.body, %lpad.body
  %.pn = phi { ptr, i32 } [ %eh.lpad-body, %lpad.body ], [ %eh.lpad-body9, %lpad10.body ], [ %6, %lpad13 ]
  resume { ptr, i32 } %.pn
}